; ModuleID = '32/621.c'
source_filename = "32/621.c"
target datalayout = "e-m:e-p270:32:32-p271:32:32-p272:64:64-i64:64-f80:128-n8:16:32:64-S128"
target triple = "x86_64-pc-linux-gnu"

@.str = private unnamed_addr constant [3 x i8] c"%d\00", align 1
@.str.1 = private unnamed_addr constant [5 x i8] c"%s%s\00", align 1
@.str.2 = private unnamed_addr constant [3 x i8] c"%c\00", align 1
@.str.3 = private unnamed_addr constant [2 x i8] c"\0A\00", align 1

; Function Attrs: noinline nounwind uwtable
define dso_local void @main() #0 {
  %1 = alloca i32, align 4
  %2 = alloca i32, align 4
  %3 = call i32 (i8*, ...) @__isoc99_scanf(i8* getelementptr inbounds ([3 x i8], [3 x i8]* @.str, i64 0, i64 0), i32* %1)
  store i32 0, i32* %2, align 4
  br label %4

4:                                                ; preds = %9, %0
  %5 = load i32, i32* %2, align 4
  %6 = load i32, i32* %1, align 4
  %7 = icmp slt i32 %5, %6
  br i1 %7, label %8, label %12

8:                                                ; preds = %4
  call void @f()
  br label %9

9:                                                ; preds = %8
  %10 = load i32, i32* %2, align 4
  %11 = add nsw i32 %10, 1
  store i32 %11, i32* %2, align 4
  br label %4

12:                                               ; preds = %4
  ret void
}

declare dso_local i32 @__isoc99_scanf(i8*, ...) #1

; Function Attrs: noinline nounwind uwtable
define dso_local void @f() #0 {
  %1 = alloca i32, align 4
  %2 = alloca i32, align 4
  %3 = alloca i32, align 4
  %4 = alloca i32, align 4
  %5 = alloca [101 x i8], align 16
  %6 = alloca [101 x i8], align 16
  store i32 0, i32* %4, align 4
  %7 = bitcast [101 x i8]* %5 to i8*
  call void @llvm.memset.p0i8.i64(i8* align 16 %7, i8 0, i64 101, i1 false)
  %8 = bitcast [101 x i8]* %6 to i8*
  call void @llvm.memset.p0i8.i64(i8* align 16 %8, i8 0, i64 101, i1 false)
  %9 = getelementptr inbounds [101 x i8], [101 x i8]* %5, i64 0, i64 0
  %10 = getelementptr inbounds [101 x i8], [101 x i8]* %6, i64 0, i64 0
  %11 = call i32 (i8*, ...) @__isoc99_scanf(i8* getelementptr inbounds ([5 x i8], [5 x i8]* @.str.1, i64 0, i64 0), i8* %9, i8* %10)
  %12 = getelementptr inbounds [101 x i8], [101 x i8]* %5, i64 0, i64 0
  %13 = call i64 @strlen(i8* %12) #4
  %14 = trunc i64 %13 to i32
  store i32 %14, i32* %2, align 4
  %15 = getelementptr inbounds [101 x i8], [101 x i8]* %6, i64 0, i64 0
  %16 = call i64 @strlen(i8* %15) #4
  %17 = trunc i64 %16 to i32
  store i32 %17, i32* %3, align 4
  store i32 0, i32* %1, align 4
  br label %18

18:                                               ; preds = %111, %0
  %19 = load i32, i32* %1, align 4
  %20 = load i32, i32* %3, align 4
  %21 = sub nsw i32 %20, 1
  %22 = icmp sle i32 %19, %21
  br i1 %22, label %23, label %114

23:                                               ; preds = %18
  %24 = load i32, i32* %2, align 4
  %25 = sub nsw i32 %24, 1
  %26 = load i32, i32* %1, align 4
  %27 = sub nsw i32 %25, %26
  %28 = sext i32 %27 to i64
  %29 = getelementptr inbounds [101 x i8], [101 x i8]* %5, i64 0, i64 %28
  %30 = load i8, i8* %29, align 1
  %31 = sext i8 %30 to i32
  %32 = load i32, i32* %3, align 4
  %33 = sub nsw i32 %32, 1
  %34 = load i32, i32* %1, align 4
  %35 = sub nsw i32 %33, %34
  %36 = sext i32 %35 to i64
  %37 = getelementptr inbounds [101 x i8], [101 x i8]* %6, i64 0, i64 %36
  %38 = load i8, i8* %37, align 1
  %39 = sext i8 %38 to i32
  %40 = icmp sge i32 %31, %39
  br i1 %40, label %41, label %67

41:                                               ; preds = %23
  %42 = load i32, i32* %2, align 4
  %43 = sub nsw i32 %42, 1
  %44 = load i32, i32* %1, align 4
  %45 = sub nsw i32 %43, %44
  %46 = sext i32 %45 to i64
  %47 = getelementptr inbounds [101 x i8], [101 x i8]* %5, i64 0, i64 %46
  %48 = load i8, i8* %47, align 1
  %49 = sext i8 %48 to i32
  %50 = load i32, i32* %3, align 4
  %51 = sub nsw i32 %50, 1
  %52 = load i32, i32* %1, align 4
  %53 = sub nsw i32 %51, %52
  %54 = sext i32 %53 to i64
  %55 = getelementptr inbounds [101 x i8], [101 x i8]* %6, i64 0, i64 %54
  %56 = load i8, i8* %55, align 1
  %57 = sext i8 %56 to i32
  %58 = sub nsw i32 %49, %57
  %59 = add nsw i32 %58, 48
  %60 = trunc i32 %59 to i8
  %61 = load i32, i32* %2, align 4
  %62 = sub nsw i32 %61, 1
  %63 = load i32, i32* %1, align 4
  %64 = sub nsw i32 %62, %63
  %65 = sext i32 %64 to i64
  %66 = getelementptr inbounds [101 x i8], [101 x i8]* %5, i64 0, i64 %65
  store i8 %60, i8* %66, align 1
  br label %110

67:                                               ; preds = %23
  %68 = load i32, i32* %2, align 4
  %69 = sub nsw i32 %68, 2
  %70 = load i32, i32* %1, align 4
  %71 = sub nsw i32 %69, %70
  %72 = sext i32 %71 to i64
  %73 = getelementptr inbounds [101 x i8], [101 x i8]* %5, i64 0, i64 %72
  %74 = load i8, i8* %73, align 1
  %75 = sext i8 %74 to i32
  %76 = sub nsw i32 %75, 1
  %77 = trunc i32 %76 to i8
  %78 = load i32, i32* %2, align 4
  %79 = sub nsw i32 %78, 2
  %80 = load i32, i32* %1, align 4
  %81 = sub nsw i32 %79, %80
  %82 = sext i32 %81 to i64
  %83 = getelementptr inbounds [101 x i8], [101 x i8]* %5, i64 0, i64 %82
  store i8 %77, i8* %83, align 1
  %84 = load i32, i32* %2, align 4
  %85 = sub nsw i32 %84, 1
  %86 = load i32, i32* %1, align 4
  %87 = sub nsw i32 %85, %86
  %88 = sext i32 %87 to i64
  %89 = getelementptr inbounds [101 x i8], [101 x i8]* %5, i64 0, i64 %88
  %90 = load i8, i8* %89, align 1
  %91 = sext i8 %90 to i32
  %92 = load i32, i32* %3, align 4
  %93 = sub nsw i32 %92, 1
  %94 = load i32, i32* %1, align 4
  %95 = sub nsw i32 %93, %94
  %96 = sext i32 %95 to i64
  %97 = getelementptr inbounds [101 x i8], [101 x i8]* %6, i64 0, i64 %96
  %98 = load i8, i8* %97, align 1
  %99 = sext i8 %98 to i32
  %100 = sub nsw i32 %91, %99
  %101 = add nsw i32 %100, 10
  %102 = add nsw i32 %101, 48
  %103 = trunc i32 %102 to i8
  %104 = load i32, i32* %2, align 4
  %105 = sub nsw i32 %104, 1
  %106 = load i32, i32* %1, align 4
  %107 = sub nsw i32 %105, %106
  %108 = sext i32 %107 to i64
  %109 = getelementptr inbounds [101 x i8], [101 x i8]* %5, i64 0, i64 %108
  store i8 %103, i8* %109, align 1
  br label %110

110:                                              ; preds = %67, %41
  br label %111

111:                                              ; preds = %110
  %112 = load i32, i32* %1, align 4
  %113 = add nsw i32 %112, 1
  store i32 %113, i32* %1, align 4
  br label %18

114:                                              ; preds = %18
  br label %115

115:                                              ; preds = %122, %114
  %116 = load i32, i32* %4, align 4
  %117 = sext i32 %116 to i64
  %118 = getelementptr inbounds [101 x i8], [101 x i8]* %5, i64 0, i64 %117
  %119 = load i8, i8* %118, align 1
  %120 = sext i8 %119 to i32
  %121 = icmp eq i32 %120, 48
  br i1 %121, label %122, label %125

122:                                              ; preds = %115
  %123 = load i32, i32* %4, align 4
  %124 = add nsw i32 %123, 1
  store i32 %124, i32* %4, align 4
  br label %115

125:                                              ; preds = %115
  %126 = load i32, i32* %4, align 4
  store i32 %126, i32* %1, align 4
  br label %127

127:                                              ; preds = %139, %125
  %128 = load i32, i32* %1, align 4
  %129 = load i32, i32* %2, align 4
  %130 = sub nsw i32 %129, 1
  %131 = icmp sle i32 %128, %130
  br i1 %131, label %132, label %142

132:                                              ; preds = %127
  %133 = load i32, i32* %1, align 4
  %134 = sext i32 %133 to i64
  %135 = getelementptr inbounds [101 x i8], [101 x i8]* %5, i64 0, i64 %134
  %136 = load i8, i8* %135, align 1
  %137 = sext i8 %136 to i32
  %138 = call i32 (i8*, ...) @printf(i8* getelementptr inbounds ([3 x i8], [3 x i8]* @.str.2, i64 0, i64 0), i32 %137)
  br label %139

139:                                              ; preds = %132
  %140 = load i32, i32* %1, align 4
  %141 = add nsw i32 %140, 1
  store i32 %141, i32* %1, align 4
  br label %127

142:                                              ; preds = %127
  %143 = call i32 (i8*, ...) @printf(i8* getelementptr inbounds ([2 x i8], [2 x i8]* @.str.3, i64 0, i64 0))
  ret void
}

; Function Attrs: argmemonly nounwind willreturn
declare void @llvm.memset.p0i8.i64(i8* nocapture writeonly, i8, i64, i1 immarg) #2

; Function Attrs: nounwind readonly
declare dso_local i64 @strlen(i8*) #3

declare dso_local i32 @printf(i8*, ...) #1


!llvm.module.flags = !{!0}
!llvm.ident = !{!1}

!0 = !{i32 1, !"wchar_size", i32 4}
!1 = !{!"clang version 10.0.0-4ubuntu1 "}
