; ModuleID = 'source-C-CXX/31/621.c'
source_filename = "source-C-CXX/31/621.c"
target datalayout = "e-m:e-p270:32:32-p271:32:32-p272:64:64-i64:64-f80:128-n8:16:32:64-S128"
target triple = "x86_64-pc-linux-gnu"

@.str = private unnamed_addr constant [3 x i8] c"%d\00", align 1
@.str.1 = private unnamed_addr constant [5 x i8] c"%s%s\00", align 1

; Function Attrs: nofree nounwind sspstrong uwtable
define dso_local void @main() local_unnamed_addr #0 {
  %1 = alloca i32, align 4
  %2 = bitcast i32* %1 to i8*
  call void @llvm.lifetime.start.p0i8(i64 4, i8* nonnull %2) #6
  %3 = call i32 (i8*, ...) @__isoc99_scanf(i8* getelementptr inbounds ([3 x i8], [3 x i8]* @.str, i64 0, i64 0), i32* nonnull %1)
  %4 = load i32, i32* %1, align 4, !tbaa !5
  %5 = icmp sgt i32 %4, 0
  br i1 %5, label %6, label %11

6:                                                ; preds = %0, %6
  %7 = phi i32 [ %8, %6 ], [ 0, %0 ]
  call void @f()
  %8 = add nuw nsw i32 %7, 1
  %9 = load i32, i32* %1, align 4, !tbaa !5
  %10 = icmp slt i32 %8, %9
  br i1 %10, label %6, label %11, !llvm.loop !9

11:                                               ; preds = %6, %0
  call void @llvm.lifetime.end.p0i8(i64 4, i8* nonnull %2) #6
  ret void
}

; Function Attrs: argmemonly mustprogress nofree nosync nounwind willreturn
declare void @llvm.lifetime.start.p0i8(i64 immarg, i8* nocapture) #1

; Function Attrs: nofree nounwind
declare noundef i32 @__isoc99_scanf(i8* nocapture noundef readonly, ...) local_unnamed_addr #2

; Function Attrs: nofree nounwind sspstrong uwtable
define dso_local void @f() local_unnamed_addr #0 {
  %1 = alloca [101 x i8], align 16
  %2 = alloca [101 x i8], align 16
  %3 = getelementptr inbounds [101 x i8], [101 x i8]* %1, i64 0, i64 0
  call void @llvm.lifetime.start.p0i8(i64 101, i8* nonnull %3) #6
  call void @llvm.memset.p0i8.i64(i8* noundef nonnull align 16 dereferenceable(101) %3, i8 0, i64 101, i1 false)
  %4 = getelementptr inbounds [101 x i8], [101 x i8]* %2, i64 0, i64 0
  call void @llvm.lifetime.start.p0i8(i64 101, i8* nonnull %4) #6
  call void @llvm.memset.p0i8.i64(i8* noundef nonnull align 16 dereferenceable(101) %4, i8 0, i64 101, i1 false)
  %5 = call i32 (i8*, ...) @__isoc99_scanf(i8* getelementptr inbounds ([5 x i8], [5 x i8]* @.str.1, i64 0, i64 0), i8* nonnull %3, i8* nonnull %4)
  %6 = call i64 @strlen(i8* noundef nonnull %3) #7
  %7 = trunc i64 %6 to i32
  %8 = call i64 @strlen(i8* noundef nonnull %4) #7
  %9 = trunc i64 %8 to i32
  %10 = add i64 %6, 4294967294
  %11 = icmp sgt i32 %9, 0
  br i1 %11, label %12, label %44

12:                                               ; preds = %0
  %13 = and i64 %8, 4294967295
  br label %14

14:                                               ; preds = %12, %40
  %15 = phi i64 [ 0, %12 ], [ %42, %40 ]
  %16 = trunc i64 %15 to i32
  %17 = xor i32 %16, -1
  %18 = add i32 %17, %7
  %19 = sext i32 %18 to i64
  %20 = getelementptr inbounds [101 x i8], [101 x i8]* %1, i64 0, i64 %19
  %21 = load i8, i8* %20, align 1, !tbaa !11
  %22 = add i32 %17, %9
  %23 = sext i32 %22 to i64
  %24 = getelementptr inbounds [101 x i8], [101 x i8]* %2, i64 0, i64 %23
  %25 = load i8, i8* %24, align 1, !tbaa !11
  %26 = icmp slt i8 %21, %25
  br i1 %26, label %30, label %27

27:                                               ; preds = %14
  %28 = add i8 %21, 48
  %29 = sub i8 %28, %25
  br label %40

30:                                               ; preds = %14
  %31 = sub i64 %10, %15
  %32 = shl i64 %31, 32
  %33 = ashr exact i64 %32, 32
  %34 = getelementptr inbounds [101 x i8], [101 x i8]* %1, i64 0, i64 %33
  %35 = load i8, i8* %34, align 1, !tbaa !11
  %36 = add i8 %35, -1
  store i8 %36, i8* %34, align 1, !tbaa !11
  %37 = load i8, i8* %20, align 1, !tbaa !11
  %38 = sub i8 58, %25
  %39 = add i8 %38, %37
  br label %40

40:                                               ; preds = %27, %30
  %41 = phi i8 [ %39, %30 ], [ %29, %27 ]
  store i8 %41, i8* %20, align 1, !tbaa !11
  %42 = add nuw nsw i64 %15, 1
  %43 = icmp eq i64 %42, %13
  br i1 %43, label %44, label %14, !llvm.loop !12

44:                                               ; preds = %40, %0
  br label %45

45:                                               ; preds = %44, %45
  %46 = phi i64 [ %50, %45 ], [ 0, %44 ]
  %47 = getelementptr inbounds [101 x i8], [101 x i8]* %1, i64 0, i64 %46
  %48 = load i8, i8* %47, align 1, !tbaa !11
  %49 = icmp eq i8 %48, 48
  %50 = add nuw i64 %46, 1
  br i1 %49, label %45, label %51, !llvm.loop !13

51:                                               ; preds = %45
  %52 = trunc i64 %46 to i32
  %53 = icmp slt i32 %52, %7
  br i1 %53, label %54, label %65

54:                                               ; preds = %51
  %55 = and i64 %46, 4294967295
  br label %56

56:                                               ; preds = %54, %56
  %57 = phi i64 [ %55, %54 ], [ %62, %56 ]
  %58 = getelementptr inbounds [101 x i8], [101 x i8]* %1, i64 0, i64 %57
  %59 = load i8, i8* %58, align 1, !tbaa !11
  %60 = sext i8 %59 to i32
  %61 = call i32 @putchar(i32 %60)
  %62 = add nuw nsw i64 %57, 1
  %63 = trunc i64 %62 to i32
  %64 = icmp eq i32 %63, %7
  br i1 %64, label %65, label %56, !llvm.loop !14

65:                                               ; preds = %56, %51
  %66 = call i32 @putchar(i32 10)
  call void @llvm.lifetime.end.p0i8(i64 101, i8* nonnull %4) #6
  call void @llvm.lifetime.end.p0i8(i64 101, i8* nonnull %3) #6
  ret void
}

; Function Attrs: argmemonly mustprogress nofree nosync nounwind willreturn
declare void @llvm.lifetime.end.p0i8(i64 immarg, i8* nocapture) #1

; Function Attrs: argmemonly mustprogress nofree nounwind willreturn writeonly
declare void @llvm.memset.p0i8.i64(i8* nocapture writeonly, i8, i64, i1 immarg) #3

; Function Attrs: argmemonly mustprogress nofree nounwind readonly willreturn
declare i64 @strlen(i8* nocapture) local_unnamed_addr #4

; Function Attrs: nofree nounwind
declare noundef i32 @putchar(i32 noundef) local_unnamed_addr #5


!llvm.module.flags = !{!0, !1, !2, !3}
!llvm.ident = !{!4}

!0 = !{i32 1, !"wchar_size", i32 4}
!1 = !{i32 7, !"PIC Level", i32 2}
!2 = !{i32 7, !"PIE Level", i32 2}
!3 = !{i32 7, !"uwtable", i32 1}
!4 = !{!"clang version 13.0.0"}
!5 = !{!6, !6, i64 0}
!6 = !{!"int", !7, i64 0}
!7 = !{!"omnipotent char", !8, i64 0}
!8 = !{!"Simple C/C++ TBAA"}
!9 = distinct !{!9, !10}
!10 = !{!"llvm.loop.mustprogress"}
!11 = !{!7, !7, i64 0}
!12 = distinct !{!12, !10}
!13 = distinct !{!13, !10}
!14 = distinct !{!14, !10}
